; ModuleID = 'source-C-CXX/40/61.cpp'
source_filename = "source-C-CXX/40/61.cpp"
target datalayout = "e-m:e-p270:32:32-p271:32:32-p272:64:64-i64:64-f80:128-n8:16:32:64-S128"
target triple = "x86_64-pc-linux-gnu"

%"class.std::ios_base::Init" = type { i8 }
%"class.std::basic_ostream" = type { i32 (...)**, %"class.std::basic_ios" }
%"class.std::basic_ios" = type { %"class.std::ios_base", %"class.std::basic_ostream"*, i8, i8, %"class.std::basic_streambuf"*, %"class.std::ctype"*, %"class.std::num_put"*, %"class.std::num_get"* }
%"class.std::ios_base" = type { i32 (...)**, i64, i64, i32, i32, i32, %"struct.std::ios_base::_Callback_list"*, %"struct.std::ios_base::_Words", [8 x %"struct.std::ios_base::_Words"], i32, %"struct.std::ios_base::_Words"*, %"class.std::locale" }
%"struct.std::ios_base::_Callback_list" = type { %"struct.std::ios_base::_Callback_list"*, void (i32, %"class.std::ios_base"*, i32)*, i32, i32 }
%"struct.std::ios_base::_Words" = type { i8*, i64 }
%"class.std::locale" = type { %"class.std::locale::_Impl"* }
%"class.std::locale::_Impl" = type { i32, %"class.std::locale::facet"**, i64, %"class.std::locale::facet"**, i8** }
%"class.std::locale::facet" = type <{ i32 (...)**, i32, [4 x i8] }>
%"class.std::basic_streambuf" = type { i32 (...)**, i8*, i8*, i8*, i8*, i8*, i8*, %"class.std::locale" }
%"class.std::ctype" = type <{ %"class.std::locale::facet.base", [4 x i8], %struct.__locale_struct*, i8, [7 x i8], i32*, i32*, i16*, i8, [256 x i8], [256 x i8], i8, [6 x i8] }>
%"class.std::locale::facet.base" = type <{ i32 (...)**, i32 }>
%struct.__locale_struct = type { [13 x %struct.__locale_data*], i16*, i32*, i32*, [13 x i8*] }
%struct.__locale_data = type opaque
%"class.std::num_put" = type { %"class.std::locale::facet.base", [4 x i8] }
%"class.std::num_get" = type { %"class.std::locale::facet.base", [4 x i8] }

@_ZStL8__ioinit = internal global %"class.std::ios_base::Init" zeroinitializer, align 1
@__dso_handle = external hidden global i8
@_ZSt4cout = external global %"class.std::basic_ostream", align 8
@.str = private unnamed_addr constant [2 x i8] c" \00", align 1
@llvm.global_ctors = appending global [1 x { i32, void ()*, i8* }] [{ i32, void ()*, i8* } { i32 65535, void ()* @_GLOBAL__sub_I_61.cpp, i8* null }]

declare void @_ZNSt8ios_base4InitC1Ev(%"class.std::ios_base::Init"* nonnull align 1 dereferenceable(1)) unnamed_addr #0

; Function Attrs: nounwind
declare void @_ZNSt8ios_base4InitD1Ev(%"class.std::ios_base::Init"* nonnull align 1 dereferenceable(1)) unnamed_addr #1

; Function Attrs: nofree nounwind
declare i32 @__cxa_atexit(void (i8*)*, i8*, i8*) local_unnamed_addr #2

; Function Attrs: mustprogress norecurse sspstrong uwtable
define dso_local i32 @main() local_unnamed_addr #3 {
  %1 = alloca [6 x i32], align 16
  %2 = bitcast [6 x i32]* %1 to i8*
  call void @llvm.lifetime.start.p0i8(i64 24, i8* nonnull %2) #7
  call void @llvm.memset.p0i8.i64(i8* noundef nonnull align 16 dereferenceable(24) %2, i8 0, i64 24, i1 false)
  %3 = getelementptr inbounds [6 x i32], [6 x i32]* %1, i64 0, i64 1
  %4 = getelementptr inbounds [6 x i32], [6 x i32]* %1, i64 0, i64 5
  %5 = bitcast i32* %3 to <4 x i32>*
  br label %6

6:                                                ; preds = %0, %80
  %7 = phi i64 [ 1, %0 ], [ %81, %80 ]
  %8 = getelementptr inbounds [6 x i32], [6 x i32]* %1, i64 0, i64 %7
  %9 = icmp eq i64 %7, 5
  %10 = zext i1 %9 to i32
  %11 = trunc i64 %7 to i32
  br label %12

12:                                               ; preds = %6, %77
  %13 = phi i64 [ 1, %6 ], [ %78, %77 ]
  %14 = icmp eq i64 %13, %7
  br i1 %14, label %77, label %15

15:                                               ; preds = %12
  %16 = add nuw nsw i64 %7, %13
  %17 = icmp eq i64 %13, 2
  %18 = zext i1 %17 to i32
  %19 = getelementptr inbounds [6 x i32], [6 x i32]* %1, i64 0, i64 %13
  %20 = trunc i64 %13 to i32
  br label %21

21:                                               ; preds = %15, %74
  %22 = phi i64 [ 1, %15 ], [ %75, %74 ]
  %23 = icmp eq i64 %22, %7
  %24 = icmp eq i64 %22, %13
  %25 = select i1 %23, i1 true, i1 %24
  br i1 %25, label %74, label %26

26:                                               ; preds = %21
  %27 = add nuw nsw i64 %16, %22
  %28 = getelementptr inbounds [6 x i32], [6 x i32]* %1, i64 0, i64 %22
  %29 = icmp ne i64 %22, 1
  %30 = zext i1 %29 to i32
  %31 = trunc i64 %22 to i32
  br label %32

32:                                               ; preds = %26, %71
  %33 = phi i64 [ 1, %26 ], [ %72, %71 ]
  %34 = icmp eq i64 %33, %7
  %35 = icmp eq i64 %33, %13
  %36 = select i1 %34, i1 true, i1 %35
  %37 = icmp eq i64 %33, %22
  %38 = select i1 %36, i1 true, i1 %37
  br i1 %38, label %71, label %39

39:                                               ; preds = %32
  %40 = add nuw nsw i64 %27, %33
  %41 = sub nsw i64 15, %40
  %42 = trunc i64 %41 to i32
  %43 = and i32 %42, -2
  %44 = icmp eq i32 %43, 2
  br i1 %44, label %71, label %45

45:                                               ; preds = %39
  %46 = icmp eq i64 %41, 1
  %47 = zext i1 %46 to i32
  store i32 %47, i32* %8, align 4, !tbaa !5
  store i32 %18, i32* %19, align 4, !tbaa !5
  store i32 %10, i32* %28, align 4, !tbaa !5
  %48 = getelementptr inbounds [6 x i32], [6 x i32]* %1, i64 0, i64 %33
  store i32 %30, i32* %48, align 4, !tbaa !5
  %49 = icmp eq i64 %33, 1
  %50 = zext i1 %49 to i32
  %51 = getelementptr inbounds [6 x i32], [6 x i32]* %1, i64 0, i64 %41
  store i32 %50, i32* %51, align 4, !tbaa !5
  %52 = load <4 x i32>, <4 x i32>* %5, align 4
  %53 = freeze <4 x i32> %52
  %54 = icmp eq <4 x i32> %53, <i32 1, i32 1, i32 0, i32 0>
  %55 = bitcast <4 x i1> %54 to i4
  %56 = icmp eq i4 %55, -1
  %57 = load i32, i32* %4, align 4
  %58 = icmp eq i32 %57, 0
  %59 = select i1 %56, i1 %58, i1 false
  br i1 %59, label %60, label %71

60:                                               ; preds = %45
  %61 = tail call nonnull align 8 dereferenceable(8) %"class.std::basic_ostream"* @_ZNSolsEi(%"class.std::basic_ostream"* nonnull align 8 dereferenceable(8) @_ZSt4cout, i32 %11)
  %62 = tail call nonnull align 8 dereferenceable(8) %"class.std::basic_ostream"* @_ZSt16__ostream_insertIcSt11char_traitsIcEERSt13basic_ostreamIT_T0_ES6_PKS3_l(%"class.std::basic_ostream"* nonnull align 8 dereferenceable(8) %61, i8* nonnull getelementptr inbounds ([2 x i8], [2 x i8]* @.str, i64 0, i64 0), i64 1)
  %63 = tail call nonnull align 8 dereferenceable(8) %"class.std::basic_ostream"* @_ZNSolsEi(%"class.std::basic_ostream"* nonnull align 8 dereferenceable(8) %61, i32 %20)
  %64 = tail call nonnull align 8 dereferenceable(8) %"class.std::basic_ostream"* @_ZSt16__ostream_insertIcSt11char_traitsIcEERSt13basic_ostreamIT_T0_ES6_PKS3_l(%"class.std::basic_ostream"* nonnull align 8 dereferenceable(8) %63, i8* nonnull getelementptr inbounds ([2 x i8], [2 x i8]* @.str, i64 0, i64 0), i64 1)
  %65 = tail call nonnull align 8 dereferenceable(8) %"class.std::basic_ostream"* @_ZNSolsEi(%"class.std::basic_ostream"* nonnull align 8 dereferenceable(8) %63, i32 %31)
  %66 = tail call nonnull align 8 dereferenceable(8) %"class.std::basic_ostream"* @_ZSt16__ostream_insertIcSt11char_traitsIcEERSt13basic_ostreamIT_T0_ES6_PKS3_l(%"class.std::basic_ostream"* nonnull align 8 dereferenceable(8) %65, i8* nonnull getelementptr inbounds ([2 x i8], [2 x i8]* @.str, i64 0, i64 0), i64 1)
  %67 = trunc i64 %33 to i32
  %68 = tail call nonnull align 8 dereferenceable(8) %"class.std::basic_ostream"* @_ZNSolsEi(%"class.std::basic_ostream"* nonnull align 8 dereferenceable(8) %65, i32 %67)
  %69 = tail call nonnull align 8 dereferenceable(8) %"class.std::basic_ostream"* @_ZSt16__ostream_insertIcSt11char_traitsIcEERSt13basic_ostreamIT_T0_ES6_PKS3_l(%"class.std::basic_ostream"* nonnull align 8 dereferenceable(8) %68, i8* nonnull getelementptr inbounds ([2 x i8], [2 x i8]* @.str, i64 0, i64 0), i64 1)
  %70 = tail call nonnull align 8 dereferenceable(8) %"class.std::basic_ostream"* @_ZNSolsEi(%"class.std::basic_ostream"* nonnull align 8 dereferenceable(8) %68, i32 %42)
  br label %71

71:                                               ; preds = %32, %45, %60, %39
  %72 = add nuw nsw i64 %33, 1
  %73 = icmp eq i64 %72, 6
  br i1 %73, label %74, label %32, !llvm.loop !9

74:                                               ; preds = %71, %21
  %75 = add nuw nsw i64 %22, 1
  %76 = icmp eq i64 %75, 6
  br i1 %76, label %77, label %21, !llvm.loop !11

77:                                               ; preds = %74, %12
  %78 = add nuw nsw i64 %13, 1
  %79 = icmp eq i64 %78, 6
  br i1 %79, label %80, label %12, !llvm.loop !12

80:                                               ; preds = %77
  %81 = add nuw nsw i64 %7, 1
  %82 = icmp eq i64 %81, 6
  br i1 %82, label %83, label %6, !llvm.loop !13

83:                                               ; preds = %80
  call void @llvm.lifetime.end.p0i8(i64 24, i8* nonnull %2) #7
  ret i32 0
}

; Function Attrs: argmemonly mustprogress nofree nosync nounwind willreturn
declare void @llvm.lifetime.start.p0i8(i64 immarg, i8* nocapture) #4

; Function Attrs: argmemonly mustprogress nofree nounwind willreturn writeonly
declare void @llvm.memset.p0i8.i64(i8* nocapture writeonly, i8, i64, i1 immarg) #5

declare nonnull align 8 dereferenceable(8) %"class.std::basic_ostream"* @_ZNSolsEi(%"class.std::basic_ostream"* nonnull align 8 dereferenceable(8), i32) local_unnamed_addr #0

; Function Attrs: argmemonly mustprogress nofree nosync nounwind willreturn
declare void @llvm.lifetime.end.p0i8(i64 immarg, i8* nocapture) #4

declare nonnull align 8 dereferenceable(8) %"class.std::basic_ostream"* @_ZSt16__ostream_insertIcSt11char_traitsIcEERSt13basic_ostreamIT_T0_ES6_PKS3_l(%"class.std::basic_ostream"* nonnull align 8 dereferenceable(8), i8*, i64) local_unnamed_addr #0

; Function Attrs: sspstrong uwtable
define internal void @_GLOBAL__sub_I_61.cpp() #6 section ".text.startup" {
  tail call void @_ZNSt8ios_base4InitC1Ev(%"class.std::ios_base::Init"* nonnull align 1 dereferenceable(1) @_ZStL8__ioinit)
  %1 = tail call i32 @__cxa_atexit(void (i8*)* bitcast (void (%"class.std::ios_base::Init"*)* @_ZNSt8ios_base4InitD1Ev to void (i8*)*), i8* getelementptr inbounds (%"class.std::ios_base::Init", %"class.std::ios_base::Init"* @_ZStL8__ioinit, i64 0, i32 0), i8* nonnull @__dso_handle) #7
  ret void
}


!llvm.module.flags = !{!0, !1, !2, !3}
!llvm.ident = !{!4}

!0 = !{i32 1, !"wchar_size", i32 4}
!1 = !{i32 7, !"PIC Level", i32 2}
!2 = !{i32 7, !"PIE Level", i32 2}
!3 = !{i32 7, !"uwtable", i32 1}
!4 = !{!"clang version 13.0.0"}
!5 = !{!6, !6, i64 0}
!6 = !{!"int", !7, i64 0}
!7 = !{!"omnipotent char", !8, i64 0}
!8 = !{!"Simple C++ TBAA"}
!9 = distinct !{!9, !10}
!10 = !{!"llvm.loop.mustprogress"}
!11 = distinct !{!11, !10}
!12 = distinct !{!12, !10}
!13 = distinct !{!13, !10}
